target datalayout = "e-m:e-p270:32:32-p271:32:32-p272:64:64-i64:64-i128:128-f80:128-n8:16:32:64-S128"
target triple = "x86_64-pc-linux-gnu"

%class.colvarproxy_smp = type { ptr, i8, ptr }

; Function Attrs: noinline noreturn nounwind uwtable
define linkonce_odr hidden void @__clang_call_terminate(ptr noundef %0) #5 comdat {
  %2 = call ptr @__cxa_begin_catch(ptr %0) #18
  call void @_ZSt9terminatev() #21
  unreachable
}

; Function Attrs: mustprogress nounwind uwtable
define void @_ZN15colvarproxy_smpD2Ev(ptr noundef nonnull align 8 dereferenceable(24) %0) unnamed_addr #0 align 2 personality ptr @__gxx_personality_v0 {
  %2 = alloca ptr, align 8
  store ptr %0, ptr %2, align 8, !tbaa !21
  %3 = load ptr, ptr %2, align 8
  store ptr getelementptr inbounds inrange(-16, 88) ({ [13 x ptr] }, ptr @_ZTV15colvarproxy_smp, i32 0, i32 0, i32 2), ptr %3, align 8, !tbaa !44
  %4 = invoke i32 @omp_get_thread_num()
          to label %5 unwind label %19

5:                                                ; preds = %1
  %6 = icmp eq i32 %4, 0
  br i1 %6, label %7, label %18

7:                                                ; preds = %5
  %8 = getelementptr inbounds nuw %class.colvarproxy_smp, ptr %3, i32 0, i32 2
  %9 = load ptr, ptr %8, align 8, !tbaa !33
  %10 = icmp ne ptr %9, null
  br i1 %10, label %11, label %17

11:                                               ; preds = %7
  %12 = getelementptr inbounds nuw %class.colvarproxy_smp, ptr %3, i32 0, i32 2
  %13 = load ptr, ptr %12, align 8, !tbaa !33
  %14 = icmp eq ptr %13, null
  br i1 %14, label %16, label %15

15:                                               ; preds = %11
  call void @_ZdlPvm(ptr noundef %13, i64 noundef 8) #20
  br label %16

16:                                               ; preds = %15, %11
  br label %17

17:                                               ; preds = %16, %7
  br label %18

18:                                               ; preds = %17, %5
  ret void

19:                                               ; preds = %1
  %20 = landingpad { ptr, i32 }
          catch ptr null
  %21 = extractvalue { ptr, i32 } %20, 0
  call void @__clang_call_terminate(ptr %21) #21
  unreachable
}