; Function Attrs: mustprogress nounwind uwtable
define void @_ZN15colvarproxy_smpD2Ev(ptr noundef nonnull align 8 captures(none) dereferenceable(24) initializes((0, 8)) %0) unnamed_addr #0 align 2 personality ptr @__gxx_personality_v0 {
  store ptr getelementptr inbounds nuw inrange(-16, 88) (i8, ptr @_ZTV15colvarproxy_smp, i64 16), ptr %0, align 8, !tbaa !36
  %2 = tail call i32 @omp_get_thread_num()
  %3 = icmp eq i32 %2, 0
  br i1 %3, label %4, label %8

4:                                                ; preds = %1
  %5 = getelementptr inbounds nuw i8, ptr %0, i64 16
  %6 = load ptr, ptr %5, align 8, !tbaa !35
  %.not = icmp eq ptr %6, null
  br i1 %.not, label %8, label %7

7:                                                ; preds = %4
  tail call void @_ZdlPvm(ptr noundef nonnull %6, i64 noundef 8) #33
  br label %8

8:                                                ; preds = %4, %7, %1
  ret void
}